; Function Attrs: mustprogress uwtable
define hidden void @_ZN4cvc58internal6theory5arith6linear28DualSimplexDecisionProcedureC2ERNS0_3EnvERNS3_20LinearEqualityModuleERNS3_8ErrorSetENS3_13RaiseConflictENS3_13TempVarMallocE(ptr noundef nonnull align 8 dereferenceable(424) %this, ptr noundef nonnull align 8 dereferenceable(576) %env, ptr noundef nonnull align 8 dereferenceable(456) %linEq, ptr noundef nonnull align 8 dereferenceable(240) %errors, ptr %conflictChannel.coerce, ptr nocapture noundef readonly %tvmalloc) unnamed_addr #3 align 2 personality ptr @__gxx_personality_v0 {
entry:
  %agg.tmp2 = alloca %"class.cvc5::internal::theory::arith::linear::TempVarMalloc", align 8
  store ptr getelementptr inbounds ({ [6 x ptr] }, ptr @_ZTVN4cvc58internal6theory5arith6linear13TempVarMallocE, i64 0, i32 0, i64 2), ptr %agg.tmp2, align 8
  %d_ta.i = getelementptr inbounds i8, ptr %agg.tmp2, i64 8
  %d_ta2.i = getelementptr inbounds i8, ptr %tvmalloc, i64 8
  %0 = load ptr, ptr %d_ta2.i, align 8
  store ptr %0, ptr %d_ta.i, align 8
  call void @_ZN4cvc58internal6theory5arith6linear24SimplexDecisionProcedureC2ERNS0_3EnvERNS3_20LinearEqualityModuleERNS3_8ErrorSetENS3_13RaiseConflictENS3_13TempVarMallocE(ptr noundef nonnull align 8 dereferenceable(304) %this, ptr noundef nonnull align 8 dereferenceable(576) %env, ptr noundef nonnull align 8 dereferenceable(456) %linEq, ptr noundef nonnull align 8 dereferenceable(240) %errors, ptr %conflictChannel.coerce, ptr noundef nonnull %agg.tmp2)
  store ptr getelementptr inbounds ({ [5 x ptr] }, ptr @_ZTVN4cvc58internal6theory5arith6linear28DualSimplexDecisionProcedureE, i64 0, i32 0, i64 2), ptr %this, align 8
  %d_pivotsInRound = getelementptr inbounds i8, ptr %this, i64 304
  call void @llvm.memset.p0.i64(ptr noundef nonnull align 8 dereferenceable(72) %d_pivotsInRound, i8 0, i64 72, i1 false)
  %call = invoke noundef nonnull align 8 dereferenceable(72) ptr @_ZNK4cvc58internal6EnvObj18statisticsRegistryEv(ptr noundef nonnull align 8 dereferenceable(16) %this)
          to label %invoke.cont7 unwind label %lpad6

invoke.cont7:                                     ; preds = %entry
  %d_statistics = getelementptr inbounds i8, ptr %this, i64 376
  %d_pivots = getelementptr inbounds i8, ptr %this, i64 16
  invoke void @_ZN4cvc58internal6theory5arith6linear28DualSimplexDecisionProcedure10StatisticsC2ERNS0_18StatisticsRegistryERj(ptr noundef nonnull align 8 dereferenceable(48) %d_statistics, ptr noundef nonnull align 8 dereferenceable(72) %call, ptr noundef nonnull align 4 dereferenceable(4) %d_pivots)
          to label %invoke.cont8 unwind label %lpad6

invoke.cont8:                                     ; preds = %invoke.cont7
  ret void

lpad6:                                            ; preds = %invoke.cont7, %entry
  %1 = landingpad { ptr, i32 }
          cleanup
  call void @_ZN4cvc58internal13DenseMultisetD2Ev(ptr noundef nonnull align 8 dereferenceable(72) %d_pivotsInRound) #18
  call void @_ZN4cvc58internal6theory5arith6linear24SimplexDecisionProcedureD2Ev(ptr noundef nonnull align 8 dereferenceable(304) %this) #18
  resume { ptr, i32 } %1
}